; Function Attrs: nounwind uwtable
define ptr @l_Lean_Compiler_LCNF_Simp_inlineCandidate_x3f___lambda__3(ptr noundef %0, ptr noundef %1, ptr readnone captures(none) %2, ptr noundef %3, ptr noundef %4, ptr noundef %5, ptr noundef %6, ptr noundef %7, ptr noundef %8, ptr noundef %9, ptr noundef %10) local_unnamed_addr #1 {
  %12 = tail call zeroext i8 @l_Lean_Compiler_LCNF_Decl_inlineAttr(ptr noundef %1) #5
  %13 = icmp eq i8 %12, 0
  br i1 %13, label %14, label %36

14:                                               ; preds = %11
  %15 = tail call zeroext i8 @l_Lean_Compiler_LCNF_Decl_inlineIfReduceAttr(ptr noundef %1) #5
  %16 = icmp eq i8 %15, 0
  br i1 %16, label %17, label %29

17:                                               ; preds = %14
  %18 = tail call zeroext i8 @l_Lean_Compiler_LCNF_Decl_noinlineAttr(ptr noundef %1) #5
  %19 = icmp eq i8 %18, 0
  br i1 %19, label %20, label %22

20:                                               ; preds = %17
  %21 = tail call ptr @l_Lean_Compiler_LCNF_Simp_isSmall(ptr noundef %0, ptr noundef %3, ptr noundef %4, ptr noundef %5, ptr noundef %6, ptr noundef %7, ptr noundef %8, ptr noundef %9, ptr noundef %10) #5
  br label %l_Lean_Compiler_LCNF_Simp_inlineCandidate_x3f___lambda__2.exit

22:                                               ; preds = %17
  tail call void @lean_inc_heartbeat() #5
  %23 = tail call noalias ptr @mi_malloc_small(i64 noundef 24) #5
  %24 = icmp eq ptr %23, null
  br i1 %24, label %25, label %lean_alloc_ctor.exit.i

25:                                               ; preds = %22
  tail call void @lean_internal_panic_out_of_memory() #6
  unreachable

lean_alloc_ctor.exit.i:                           ; preds = %22
  %26 = getelementptr inbounds nuw i8, ptr %23, i64 4
  store i32 1, ptr %23, align 4, !tbaa !10
  store i32 131096, ptr %26, align 4
  %27 = getelementptr inbounds nuw i8, ptr %23, i64 8
  store ptr inttoptr (i64 1 to ptr), ptr %27, align 8, !tbaa !4
  %28 = getelementptr inbounds nuw i8, ptr %23, i64 16
  store ptr %10, ptr %28, align 8, !tbaa !4
  br label %l_Lean_Compiler_LCNF_Simp_inlineCandidate_x3f___lambda__2.exit

29:                                               ; preds = %14
  tail call void @lean_inc_heartbeat() #5
  %30 = tail call noalias ptr @mi_malloc_small(i64 noundef 24) #5
  %31 = icmp eq ptr %30, null
  br i1 %31, label %32, label %lean_alloc_ctor.exit

32:                                               ; preds = %29
  tail call void @lean_internal_panic_out_of_memory() #6
  unreachable

lean_alloc_ctor.exit:                             ; preds = %29
  %33 = getelementptr inbounds nuw i8, ptr %30, i64 4
  store i32 1, ptr %30, align 4, !tbaa !10
  store i32 131096, ptr %33, align 4
  %34 = getelementptr inbounds nuw i8, ptr %30, i64 8
  store ptr inttoptr (i64 3 to ptr), ptr %34, align 8, !tbaa !4
  %35 = getelementptr inbounds nuw i8, ptr %30, i64 16
  store ptr %10, ptr %35, align 8, !tbaa !4
  br label %l_Lean_Compiler_LCNF_Simp_inlineCandidate_x3f___lambda__2.exit

36:                                               ; preds = %11
  tail call void @lean_inc_heartbeat() #5
  %37 = tail call noalias ptr @mi_malloc_small(i64 noundef 24) #5
  %38 = icmp eq ptr %37, null
  br i1 %38, label %39, label %lean_alloc_ctor.exit28

39:                                               ; preds = %36
  tail call void @lean_internal_panic_out_of_memory() #6
  unreachable

lean_alloc_ctor.exit28:                           ; preds = %36
  %40 = getelementptr inbounds nuw i8, ptr %37, i64 4
  store i32 1, ptr %37, align 4, !tbaa !10
  store i32 131096, ptr %40, align 4
  %41 = getelementptr inbounds nuw i8, ptr %37, i64 8
  store ptr inttoptr (i64 3 to ptr), ptr %41, align 8, !tbaa !4
  %42 = getelementptr inbounds nuw i8, ptr %37, i64 16
  store ptr %10, ptr %42, align 8, !tbaa !4
  br label %l_Lean_Compiler_LCNF_Simp_inlineCandidate_x3f___lambda__2.exit

l_Lean_Compiler_LCNF_Simp_inlineCandidate_x3f___lambda__2.exit: ; preds = %lean_alloc_ctor.exit.i, %20, %lean_alloc_ctor.exit, %lean_alloc_ctor.exit28
  %.1 = phi ptr [ %37, %lean_alloc_ctor.exit28 ], [ %30, %lean_alloc_ctor.exit ], [ %21, %20 ], [ %23, %lean_alloc_ctor.exit.i ]
  ret ptr %.1
}